VERSION 1.4019

EXPORTS
#if ROUTE_INDIRECTION_THROUGH_KERNEL
    ?g_GetData@Struct_Microsoft_Singularity_V1_Services_SharedHeapService@@SIPAUuintPtr@@PAUStruct_Microsoft_Singularity_V1_Services_SharedHeapService_Allocation@@@Z
    ?g_GetSize@Struct_Microsoft_Singularity_V1_Services_SharedHeapService@@SIPAUuintPtr@@PAUStruct_Microsoft_Singularity_V1_Services_SharedHeapService_Allocation@@@Z
    ?g_GetType@Struct_Microsoft_Singularity_V1_Services_SharedHeapService@@SIPAUuintPtr@@PAUStruct_Microsoft_Singularity_V1_Services_SharedHeapService_Allocation@@@Z
#endif
    ?g_AcceptDelegation@Struct_Microsoft_Singularity_V1_Services_EndpointCore@@SIXPAUStruct_Microsoft_Singularity_V1_Services_SharedHeapService_Allocation@@00@Z
    ?g_Ack@Struct_Microsoft_Singularity_V1_Threads_InterruptHandle@@SI_NU1@@Z
    ?g_AddToPerfCounter@Struct_Microsoft_Singularity_V1_Services_DebugService@@SI_NI_K@Z
    ?g_Allocate@Struct_Microsoft_Singularity_V1_Services_EndpointCore@@SIPAUStruct_Microsoft_Singularity_V1_Services_SharedHeapService_Allocation@@IUStruct_Microsoft_Singularity_V1_Types_SystemType@@@Z
    ?g_Allocate@Struct_Microsoft_Singularity_V1_Services_PageTableService@@SIII@Z
    ?g_Allocate@Struct_Microsoft_Singularity_V1_Services_PageTableService@@SIPAUuintPtr@@PAU2@@Z
    ?g_Allocate@Struct_Microsoft_Singularity_V1_Services_SharedHeapService@@SIPAUStruct_Microsoft_Singularity_V1_Services_SharedHeapService_Allocation@@PAUuintPtr@@UStruct_Microsoft_Singularity_V1_Types_SystemType@@I@Z
    ?g_AllocateExtend@Struct_Microsoft_Singularity_V1_Services_PageTableService@@SIIII@Z
    ?g_AllocateExtend@Struct_Microsoft_Singularity_V1_Services_PageTableService@@SIPAUuintPtr@@PAU2@0@Z
    ?g_AllocateIOMemory@Struct_Microsoft_Singularity_V1_Services_PageTableService@@SIIIII@Z
    ?g_AllocateIOMemory@Struct_Microsoft_Singularity_V1_Services_PageTableService@@SIPAUuintPtr@@PAU2@00@Z
    ?g_AllocateStackSegmentAbi@Struct_Microsoft_Singularity_V1_Services_StackService@@SIPAUuintPtr@@PAU2@@Z
    ?g_BindToService@Struct_Microsoft_Singularity_V1_Processes_ProcessHandle@@SI_NU1@UStruct_Microsoft_Singularity_V1_Types_SystemType@@1PA_WHHH@Z
    ?g_Break@Struct_Microsoft_Singularity_V1_Services_DebugService@@SIXXZ
    ?g_CleanAndInvalidateDCache@Struct_Microsoft_Singularity_V1_Services_PlatformService@@SIXPAUuintPtr@@0@Z
    ?g_Close@Struct_Microsoft_Singularity_V1_Services_EndpointCore@@SIXPAU1@@Z
    ?g_CloseGlobalStorage@Struct_Microsoft_Singularity_V1_Services_DiagnosisService@@SIXPAUuintPtr@@@Z
    ?g_Connect@Struct_Microsoft_Singularity_V1_Services_EndpointCore@@SIXPAUStruct_Microsoft_Singularity_V1_Services_SharedHeapService_Allocation@@00@Z
    ?g_CreateImpl@Struct_Microsoft_Singularity_V1_Processes_ProcessHandle@@SI_NPA_WH0H0HPAU1@@Z
    ?g_CreateImpl@Struct_Microsoft_Singularity_V1_Processes_ProcessHandle@@SI_NPA_WPAHH0HHPAU1@@Z
    ?g_CreateImpl@Struct_Microsoft_Singularity_V1_Services_PciPortHandle@@SI_NPAU1@@Z
    ?g_CreateImpl@Struct_Microsoft_Singularity_V1_Threads_AutoResetEventHandle@@SI_N_NPAU1@@Z
    ?g_CreateImpl@Struct_Microsoft_Singularity_V1_Threads_ContainerHandle@@SI_NPAU1@@Z
    ?g_CreateImpl@Struct_Microsoft_Singularity_V1_Threads_InterruptHandle@@SI_NEPAU1@@Z
    ?g_CreateImpl@Struct_Microsoft_Singularity_V1_Threads_ManualResetEventHandle@@SI_N_NPAU1@@Z
    ?g_CreateImpl@Struct_Microsoft_Singularity_V1_Threads_MutexHandle@@SI_N_NPAU1@@Z
    ?g_CreateImpl@Struct_Microsoft_Singularity_V1_Threads_ThreadHandle@@SI_NHUStruct_Microsoft_Singularity_V1_Threads_ContainerHandle@@PAU1@PAPAUuintPtr@@@Z
    ?g_CreateQueryView@Struct_Microsoft_Singularity_V1_Services_DiagnosisService@@SIPAUuintPtr@@PAU2@_N@Z
    ?g_CurrentThread@Struct_Microsoft_Singularity_V1_Threads_ThreadHandle@@SI?AU1@XZ
    ?g_DebugPrintLogEntry@Struct_Microsoft_Singularity_V1_Services_DiagnosisService@@SI_NPAUuintPtr@@0@Z
    ?g_DeleteQueryView@Struct_Microsoft_Singularity_V1_Services_DiagnosisService@@SIXPAUuintPtr@@@Z
    ?g_DisableInterrupts@Struct_Microsoft_Singularity_V1_Services_PlatformService@@SI_NXZ
    ?g_Dispose@Struct_Microsoft_Singularity_V1_Processes_ProcessHandle@@SIXU1@@Z
    ?g_Dispose@Struct_Microsoft_Singularity_V1_Services_EndpointCore@@SI_NPAU1@@Z
    ?g_Dispose@Struct_Microsoft_Singularity_V1_Services_PciPortHandle@@SI_NU1@@Z
    ?g_Dispose@Struct_Microsoft_Singularity_V1_Threads_AutoResetEventHandle@@SIXU1@@Z
    ?g_Dispose@Struct_Microsoft_Singularity_V1_Threads_ContainerHandle@@SIXU1@@Z
    ?g_Dispose@Struct_Microsoft_Singularity_V1_Threads_InterruptHandle@@SI_NU1@@Z
    ?g_Dispose@Struct_Microsoft_Singularity_V1_Threads_ManualResetEventHandle@@SIXU1@@Z
    ?g_Dispose@Struct_Microsoft_Singularity_V1_Threads_MutexHandle@@SIXU1@@Z
    ?g_Dispose@Struct_Microsoft_Singularity_V1_Threads_ThreadHandle@@SIXU1@@Z
    ?g_EnableDelegation@Struct_Microsoft_Singularity_V1_Services_EndpointCore@@SIXPAU1@_N@Z
    ?g_ExpandAclIndirectionImpl@Struct_Microsoft_Singularity_V1_Security_PrincipalHandle@@SIHPA_WH0H@Z
    ?g_Free@Struct_Microsoft_Singularity_V1_Services_EndpointCore@@SIXPAUStruct_Microsoft_Singularity_V1_Services_SharedHeapService_Allocation@@@Z
    ?g_Free@Struct_Microsoft_Singularity_V1_Services_PageTableService@@SIXII@Z
    ?g_Free@Struct_Microsoft_Singularity_V1_Services_PageTableService@@SIXPAUuintPtr@@0@Z
    ?g_Free@Struct_Microsoft_Singularity_V1_Services_SharedHeapService@@SI_NPAUStruct_Microsoft_Singularity_V1_Services_SharedHeapService_Allocation@@@Z
    ?g_FreeIOMemory@Struct_Microsoft_Singularity_V1_Services_PageTableService@@SIXII@Z
    ?g_FreeIOMemory@Struct_Microsoft_Singularity_V1_Services_PageTableService@@SIXPAUuintPtr@@0@Z
    ?g_FreeStackSegmentAbi@Struct_Microsoft_Singularity_V1_Services_StackService@@SIXXZ
    ?g_GCProfileSettings@Struct_Microsoft_Singularity_V1_Services_DiagnosisService@@SIHPA_K0@Z
    ?g_GetAffinity@Struct_Microsoft_Singularity_V1_Threads_ThreadHandle@@SIHU1@@Z
    ?g_GetBaseAddress@Struct_Microsoft_Singularity_V1_Services_PageTableService@@SIIXZ
    ?g_GetContextSwitchCount@Struct_Microsoft_Singularity_V1_Services_ProcessService@@SI_JXZ
    ?g_GetCpuCount@Struct_Microsoft_Singularity_V1_Services_ProcessService@@SIHXZ
    ?g_GetCurrentProcessId@Struct_Microsoft_Singularity_V1_Services_ProcessService@@SIGXZ
    ?g_GetCycleCount@Struct_Microsoft_Singularity_V1_Services_ProcessService@@SI_JXZ
    ?g_GetCyclesPerSecond@Struct_Microsoft_Singularity_V1_Services_ProcessService@@SI_JXZ
    ?g_GetDmaPhysicalAddressImpl@Struct_Microsoft_Singularity_V1_Services_DeviceService@@SI_NPAUuintPtr@@PAPAU2@1@Z
    ?g_GetDynamicIoDmaRangeImpl@Struct_Microsoft_Singularity_V1_Services_DeviceService@@SI_NIPAE0@Z
    ?g_GetDynamicIoIrqRangeImpl@Struct_Microsoft_Singularity_V1_Services_DeviceService@@SI_NIPAE0@Z
    ?g_GetDynamicIoMemoryRangeImpl@Struct_Microsoft_Singularity_V1_Services_DeviceService@@SI_NIPAPAEPAIPA_N2@Z
    ?g_GetDynamicIoPortRangeImpl@Struct_Microsoft_Singularity_V1_Services_DeviceService@@SI_NIPAG0PA_N1@Z
    ?g_GetDynamicIoRangeCount@Struct_Microsoft_Singularity_V1_Services_DeviceService@@SIIXZ
    ?g_GetExecutionTime@Struct_Microsoft_Singularity_V1_Threads_ThreadHandle@@SI?AUStruct_System_TimeSpan@@U1@@Z
    ?g_GetExitCode@Struct_Microsoft_Singularity_V1_Processes_ProcessHandle@@SIHU1@@Z
    ?g_GetFixedIoDmaRangeImpl@Struct_Microsoft_Singularity_V1_Services_DeviceService@@SI_NIPAE0@Z
    ?g_GetFixedIoIrqRangeImpl@Struct_Microsoft_Singularity_V1_Services_DeviceService@@SI_NIPAE0@Z
    ?g_GetFixedIoMemoryRangeImpl@Struct_Microsoft_Singularity_V1_Services_DeviceService@@SI_NIPAPAEPAIPA_N2@Z
    ?g_GetFixedIoPortRangeImpl@Struct_Microsoft_Singularity_V1_Services_DeviceService@@SI_NIPAG0PA_N1@Z
    ?g_GetFixedIoRangeCount@Struct_Microsoft_Singularity_V1_Services_DeviceService@@SIIXZ
    ?g_GetIrqCount@Struct_Microsoft_Singularity_V1_Services_DeviceService@@SIHE@Z
    ?g_GetKernelBootCount@Struct_Microsoft_Singularity_V1_Services_ProcessService@@SI_JXZ
    ?g_GetKernelGcCount@Struct_Microsoft_Singularity_V1_Services_ProcessService@@SI_JXZ
    ?g_GetKernelInterruptCount@Struct_Microsoft_Singularity_V1_Services_ProcessService@@SI_JXZ
    ?g_GetNamespaceEndpoint@Struct_Microsoft_Singularity_V1_Services_ProcessService@@SIPAUStruct_Microsoft_Singularity_V1_Services_SharedHeapService_Allocation@@XZ
    ?g_GetNextEntry@Struct_Microsoft_Singularity_V1_Services_DiagnosisService@@SIPAUuintPtr@@PAU2@PAPAU2@PAIPAEG@Z
    ?g_GetOwnerPrincipalHandle@Struct_Microsoft_Singularity_V1_Services_EndpointCore@@SI?AUStruct_Microsoft_Singularity_V1_Security_PrincipalHandle@@PAU1@@Z
    ?g_GetPageCount@Struct_Microsoft_Singularity_V1_Services_PageTableService@@SIIXZ
    ?g_GetPageTable@Struct_Microsoft_Singularity_V1_Services_PageTableService@@SIPAIXZ
    ?g_GetPciPort@Struct_Microsoft_Singularity_V1_Services_DeviceService@@SI_NPAUStruct_Microsoft_Singularity_V1_Services_PciPortHandle@@@Z
    ?g_GetPeerABI@Struct_Microsoft_Singularity_V1_Services_EndpointCore@@SIPAUStruct_Microsoft_Singularity_V1_Services_SharedHeapService_Allocation@@PAU1@PA_N@Z
    ?g_GetPeerPrincipalHandle@Struct_Microsoft_Singularity_V1_Services_EndpointCore@@SI?AUStruct_Microsoft_Singularity_V1_Security_PrincipalHandle@@PAU1@@Z
    ?g_GetPeerProcessIDABI@Struct_Microsoft_Singularity_V1_Services_EndpointCore@@SIHPAU1@@Z
    ?g_GetPnpSignature@Struct_Microsoft_Singularity_V1_Services_DeviceService@@SIIHPA_WI@Z
    ?g_GetPrincipalHandle@Struct_Microsoft_Singularity_V1_Processes_ProcessHandle@@SI?AUStruct_Microsoft_Singularity_V1_Security_PrincipalHandle@@U1@@Z
    ?g_GetPrincipalNameImpl@Struct_Microsoft_Singularity_V1_Security_PrincipalHandle@@SIHU1@PA_WH@Z
    ?g_GetProcessId@Struct_Microsoft_Singularity_V1_Processes_ProcessHandle@@SIHU1@@Z
    ?g_GetProcessTag@Struct_Microsoft_Singularity_V1_Services_PageTableService@@SIIXZ
    ?g_GetProcessorContextOffset@Struct_Microsoft_Singularity_V1_Services_PlatformService@@SIHXZ
    ?g_GetSharedSourceHandlesImpl@Struct_Microsoft_Singularity_V1_Services_ProcessService@@SI_NIPAPAUuintPtr@@00@Z
    ?g_GetSourceInformation@Struct_Microsoft_Singularity_V1_Services_DiagnosisService@@SI_NPAUuintPtr@@PAPAU2@1PAGPA_WG@Z
    ?g_GetStartupArg@Struct_Microsoft_Singularity_V1_Services_ProcessService@@SIHHPA_WH@Z
    ?g_GetStartupArgCount@Struct_Microsoft_Singularity_V1_Services_ProcessService@@SIHXZ
    ?g_GetStartupBoolArgCount@Struct_Microsoft_Singularity_V1_Services_ProcessService@@SIHXZ
    ?g_GetStartupBoolArgImpl@Struct_Microsoft_Singularity_V1_Services_ProcessService@@SI?AUStruct_Microsoft_Singularity_V1_Services_ParameterCode@@HPA_N@Z
    ?g_GetStartupEndpoint@Struct_Microsoft_Singularity_V1_Services_ProcessService@@SIPAUStruct_Microsoft_Singularity_V1_Services_SharedHeapService_Allocation@@H@Z
    ?g_GetStartupEndpointCount@Struct_Microsoft_Singularity_V1_Services_ProcessService@@SIHXZ
    ?g_GetStartupLongArgCount@Struct_Microsoft_Singularity_V1_Services_ProcessService@@SIHXZ
    ?g_GetStartupLongArgImpl@Struct_Microsoft_Singularity_V1_Services_ProcessService@@SI?AUStruct_Microsoft_Singularity_V1_Services_ParameterCode@@HPA_J@Z
    ?g_GetStartupStringArgCount@Struct_Microsoft_Singularity_V1_Services_ProcessService@@SIHXZ
    ?g_GetStartupStringArgImpl@Struct_Microsoft_Singularity_V1_Services_ProcessService@@SI?AUStruct_Microsoft_Singularity_V1_Services_ParameterCode@@HPA_WPAH@Z
    ?g_GetStartupStringArrayArgCount@Struct_Microsoft_Singularity_V1_Services_ProcessService@@SIHXZ
    ?g_GetStartupStringArrayArgImpl@Struct_Microsoft_Singularity_V1_Services_ProcessService@@SI?AUStruct_Microsoft_Singularity_V1_Services_ParameterCode@@HPA_WPAH11@Z
    ?g_GetState@Struct_Microsoft_Singularity_V1_Processes_ProcessHandle@@SI?AUStruct_Microsoft_Singularity_V1_Processes_ProcessState@@U1@@Z
    ?g_GetThreadContextOffset@Struct_Microsoft_Singularity_V1_Services_PlatformService@@SIHXZ
    ?g_GetThreadLocalValue@Struct_Microsoft_Singularity_V1_Threads_ThreadHandle@@SIPAUuintPtr@@XZ
    ?g_GetThreadState@Struct_Microsoft_Singularity_V1_Threads_ThreadHandle@@SI?AUStruct_Microsoft_Singularity_V1_Threads_ThreadState@@U1@@Z
    ?g_GetThreadTime@Struct_Microsoft_Singularity_V1_Services_ProcessService@@SI?AUStruct_System_TimeSpan@@XZ
    ?g_GetThreadsCreatedCount@Struct_Microsoft_Singularity_V1_Services_ProcessService@@SI_JXZ
    ?g_GetUpTime@Struct_Microsoft_Singularity_V1_Services_ProcessService@@SI?AUStruct_System_TimeSpan@@XZ
    ?g_GetUsageStatisticsImpl@Struct_Microsoft_Singularity_V1_Services_PageTableService@@SIXPA_K000@Z
    ?g_GetUsageStatisticsImpl@Struct_Microsoft_Singularity_V1_Services_StackService@@SIXPA_K0@Z
    ?g_GetUtcTime@Struct_Microsoft_Singularity_V1_Services_ProcessService@@SI?AUStruct_System_DateTime@@XZ
    ?g_InterruptsDisabled@Struct_Microsoft_Singularity_V1_Services_PlatformService@@SI_NXZ
    ?g_InvalidateDCache@Struct_Microsoft_Singularity_V1_Services_PlatformService@@SIXPAUuintPtr@@0@Z
    ?g_IsDebuggerPresent@Struct_Microsoft_Singularity_V1_Services_DebugService@@SI_NXZ
    ?g_IsNull@Struct_Microsoft_Singularity_V1_Types_SystemType@@SI_NU1@@Z
    ?g_IsOwnedByCurrentThread@Struct_Microsoft_Singularity_V1_Threads_MutexHandle@@SI_NU1@@Z
    ?g_IsSubtype@Struct_Microsoft_Singularity_V1_Types_SystemType@@SI_NPAUStruct_Microsoft_Singularity_V1_Services_SharedHeapService_Allocation@@U1@@Z
    ?g_IsSubtype@Struct_Microsoft_Singularity_V1_Types_SystemType@@SI_NU1@0@Z
    ?g_Join@Struct_Microsoft_Singularity_V1_Threads_ThreadHandle@@SI_NU1@@Z
    ?g_Join@Struct_Microsoft_Singularity_V1_Threads_ThreadHandle@@SI_NU1@UStruct_System_SchedulerTime@@@Z
    ?g_Join@Struct_Microsoft_Singularity_V1_Threads_ThreadHandle@@SI_NU1@UStruct_System_TimeSpan@@@Z
    ?g_JoinImpl@Struct_Microsoft_Singularity_V1_Processes_ProcessHandle@@SIXU1@PA_N@Z
    ?g_JoinImpl@Struct_Microsoft_Singularity_V1_Processes_ProcessHandle@@SI_NU1@UStruct_System_SchedulerTime@@PA_N@Z
    ?g_JoinImpl@Struct_Microsoft_Singularity_V1_Processes_ProcessHandle@@SI_NU1@UStruct_System_TimeSpan@@PA_N@Z
    ?g_KPTest@Struct_Microsoft_Singularity_V1_Stress_StressDirect@@SIIPAUStruct_Microsoft_Singularity_V1_Services_SharedHeapService_Allocation@@H@Z
    ?g_LogSourceEntry@Struct_Microsoft_Singularity_V1_Services_DiagnosisService@@SIPAUuintPtr@@PAU2@I0PAEH@Z
    ?g_MapPhysicalRange@Struct_Microsoft_Singularity_V1_Services_DeviceService@@SIPAUuintPtr@@PAU2@0_N1@Z
    ?g_MarshallMessage@Struct_Microsoft_Singularity_V1_Services_EndpointCore@@SIXPAU1@PAE1PAHH@Z
    ?g_MarshallPointer@Struct_Microsoft_Singularity_V1_Services_EndpointCore@@SIXPAU1@PAEPAPAEUStruct_Microsoft_Singularity_V1_Types_SystemType@@1H@Z
    ?g_MemoryUsageInfo@Struct_Microsoft_Singularity_V1_Services_MemoryInfoService@@SIHPA_K0000000@Z
    ?g_NotifyPeer@Struct_Microsoft_Singularity_V1_Services_EndpointCore@@SIXPAU1@@Z
    ?g_OpenGlobalStorage@Struct_Microsoft_Singularity_V1_Services_DiagnosisService@@SIPAUuintPtr@@PAU2@@Z
    ?g_PeerClosedABI@Struct_Microsoft_Singularity_V1_Services_EndpointCore@@SI_NPAU1@@Z
    ?g_Print@Struct_Microsoft_Singularity_V1_Services_DebugService@@SIXE@Z
    ?g_Print@Struct_Microsoft_Singularity_V1_Services_DebugService@@SIXH@Z
    ?g_Print@Struct_Microsoft_Singularity_V1_Services_DebugService@@SIXI@Z
    ?g_Print@Struct_Microsoft_Singularity_V1_Services_DebugService@@SIXPA_W@Z
    ?g_Print@Struct_Microsoft_Singularity_V1_Services_DebugService@@SIXPA_WH@Z
    ?g_Print@Struct_Microsoft_Singularity_V1_Services_DebugService@@SIX_J@Z
    ?g_Print@Struct_Microsoft_Singularity_V1_Services_DebugService@@SIX_K@Z
    ?g_Print@Struct_Microsoft_Singularity_V1_Services_DebugService@@SIX_N@Z
    ?g_Print@Struct_Microsoft_Singularity_V1_Services_DebugService@@SIX_W@Z
    ?g_PrintBeginImpl@Struct_Microsoft_Singularity_V1_Services_DebugService@@SIXPAPA_WPAH@Z
    ?g_PrintComplete@Struct_Microsoft_Singularity_V1_Services_DebugService@@SIXPA_WH@Z
    ?g_Pulse@Struct_Microsoft_Singularity_V1_Threads_InterruptHandle@@SIXU1@@Z
    ?g_QueryEventTypeList@Struct_Microsoft_Singularity_V1_Services_DiagnosisService@@SIHPAPAUuintPtr@@H@Z
    ?g_QueryImpl@Struct_Microsoft_Singularity_V1_Services_PageTableService@@SI_NIPAI0@Z
    ?g_QueryImpl@Struct_Microsoft_Singularity_V1_Services_PageTableService@@SI_NPAUuintPtr@@PAPAU2@1@Z
    ?g_QuerySourcesList@Struct_Microsoft_Singularity_V1_Services_DiagnosisService@@SIHPAPAUuintPtr@@H@Z
    ?g_Read16Impl@Struct_Microsoft_Singularity_V1_Services_PciPortHandle@@SI_NU1@HPAG@Z
    ?g_Read32Impl@Struct_Microsoft_Singularity_V1_Services_PciPortHandle@@SI_NU1@HPAI@Z
    ?g_Read8Impl@Struct_Microsoft_Singularity_V1_Services_PciPortHandle@@SI_NU1@HPAE@Z
    ?g_ReadActiveSourceItem@Struct_Microsoft_Singularity_V1_Services_DiagnosisService@@SI_NPAUuintPtr@@HPAPAU2@PAEG@Z
    ?g_ReadPerfCounter@Struct_Microsoft_Singularity_V1_Services_DebugService@@SI_KI@Z
    ?g_Register@Struct_Microsoft_Singularity_V1_Types_SystemType@@SI?AU1@PA_WH_J1U1@@Z
    ?g_RegisterEnum@Struct_Microsoft_Singularity_V1_Services_DiagnosisService@@SI_NPA_WGPAPAUuintPtr@@@Z
    ?g_RegisterEnumValue@Struct_Microsoft_Singularity_V1_Services_DiagnosisService@@SI_NPAUuintPtr@@PA_W_KE@Z
    ?g_RegisterEvent@Struct_Microsoft_Singularity_V1_Services_DiagnosisService@@SI_NPA_W0PAPAUuintPtr@@@Z
    ?g_RegisterEventField@Struct_Microsoft_Singularity_V1_Services_DiagnosisService@@SI_NPAUuintPtr@@PA_WGG@Z
    ?g_RegisterEventGenericField@Struct_Microsoft_Singularity_V1_Services_DiagnosisService@@SI_NPAUuintPtr@@PA_WGG0@Z
    ?g_RegisterEventingController@Struct_Microsoft_Singularity_V1_Services_DiagnosisService@@SI_NPAUuintPtr@@0@Z
    ?g_Release@Struct_Microsoft_Singularity_V1_Threads_MutexHandle@@SIXU1@@Z
    ?g_Reset@Struct_Microsoft_Singularity_V1_Threads_AutoResetEventHandle@@SI_NU1@@Z
    ?g_Reset@Struct_Microsoft_Singularity_V1_Threads_ManualResetEventHandle@@SI_NU1@@Z
    ?g_RestoreInterrupts@Struct_Microsoft_Singularity_V1_Services_PlatformService@@SIX_N@Z
    ?g_Resume@Struct_Microsoft_Singularity_V1_Processes_ProcessHandle@@SI_NU1@_N@Z
    ?g_RootSystemType@Struct_Microsoft_Singularity_V1_Types_SystemType@@SI?AU1@XZ
    ?g_SelfPrincipalHandle@Struct_Microsoft_Singularity_V1_Security_PrincipalHandle@@SI?AU1@XZ
    ?g_Set@Struct_Microsoft_Singularity_V1_Threads_AutoResetEventHandle@@SI_NU1@@Z
    ?g_Set@Struct_Microsoft_Singularity_V1_Threads_ManualResetEventHandle@@SI_NU1@@Z
    ?g_SetAffinity@Struct_Microsoft_Singularity_V1_Threads_ThreadHandle@@SIXU1@H@Z
    ?g_SetAll@Struct_Microsoft_Singularity_V1_Threads_AutoResetEventHandle@@SI_NU1@@Z
    ?g_SetCacheAttributes@Struct_Microsoft_Singularity_V1_Services_PlatformService@@SIXPAUuintPtr@@0_N1@Z
    ?g_SetGcPerformanceCounters@Struct_Microsoft_Singularity_V1_Services_ProcessService@@SIXUStruct_System_TimeSpan@@_J@Z
    ?g_SetNoGC@Struct_Microsoft_Singularity_V1_Threads_AutoResetEventHandle@@SI_NU1@@Z
    ?g_SetStartupBoolArg@Struct_Microsoft_Singularity_V1_Processes_ProcessHandle@@SI?AUStruct_Microsoft_Singularity_V1_Services_ParameterCode@@U1@H_N@Z
    ?g_SetStartupEndpoint@Struct_Microsoft_Singularity_V1_Processes_ProcessHandle@@SI_NU1@HPAUStruct_Microsoft_Singularity_V1_Services_SharedHeapService_Allocation@@@Z
    ?g_SetStartupEndpoint@Struct_Microsoft_Singularity_V1_Services_ProcessService@@SIXHPAUStruct_Microsoft_Singularity_V1_Services_SharedHeapService_Allocation@@@Z
    ?g_SetStartupLongArg@Struct_Microsoft_Singularity_V1_Processes_ProcessHandle@@SI?AUStruct_Microsoft_Singularity_V1_Services_ParameterCode@@U1@H_J@Z
    ?g_SetStartupStringArg@Struct_Microsoft_Singularity_V1_Processes_ProcessHandle@@SI?AUStruct_Microsoft_Singularity_V1_Services_ParameterCode@@U1@HPA_WH@Z
    ?g_SetStartupStringArrayArg@Struct_Microsoft_Singularity_V1_Processes_ProcessHandle@@SI?AUStruct_Microsoft_Singularity_V1_Services_ParameterCode@@U1@HPA_WPAHH@Z
    ?g_SetThreadLocalValue@Struct_Microsoft_Singularity_V1_Threads_ThreadHandle@@SIXPAUuintPtr@@@Z
    ?g_Share@Struct_Microsoft_Singularity_V1_Services_SharedHeapService@@SIPAUStruct_Microsoft_Singularity_V1_Services_SharedHeapService_Allocation@@PAU2@PAUuintPtr@@1@Z
    ?g_Sleep@Struct_Microsoft_Singularity_V1_Threads_ThreadHandle@@SIXUStruct_System_SchedulerTime@@@Z
    ?g_Sleep@Struct_Microsoft_Singularity_V1_Threads_ThreadHandle@@SIXUStruct_System_TimeSpan@@@Z
    ?g_SpinWait@Struct_Microsoft_Singularity_V1_Threads_ThreadHandle@@SIXH@Z
    ?g_Split@Struct_Microsoft_Singularity_V1_Services_SharedHeapService@@SIPAUStruct_Microsoft_Singularity_V1_Services_SharedHeapService_Allocation@@PAU2@PAUuintPtr@@@Z
    ?g_StackOverflowImpl@Struct_Microsoft_Singularity_V1_Services_StackService@@SIXXZ
    ?g_Start@Struct_Microsoft_Singularity_V1_Processes_ProcessHandle@@SI_NU1@@Z
    ?g_Start@Struct_Microsoft_Singularity_V1_Threads_ThreadHandle@@SIXU1@@Z
    ?g_Stop@Struct_Microsoft_Singularity_V1_Processes_ProcessHandle@@SIXU1@H@Z
    ?g_Stop@Struct_Microsoft_Singularity_V1_Services_ProcessService@@SIXH@Z
    ?g_Suspend@Struct_Microsoft_Singularity_V1_Processes_ProcessHandle@@SI_NU1@_N@Z
    ?g_SuspendBarrier@Struct_Microsoft_Singularity_V1_Processes_ProcessHandle@@SIXXZ
    ?g_TestKernelStorage@Struct_Microsoft_Singularity_V1_Services_DiagnosisService@@SI_NXZ
    ?g_TransferBlockOwnership@Struct_Microsoft_Singularity_V1_Services_EndpointCore@@SIXPAUStruct_Microsoft_Singularity_V1_Services_SharedHeapService_Allocation@@PAU1@@Z
    ?g_TransferContentOwnership@Struct_Microsoft_Singularity_V1_Services_EndpointCore@@SIXPAU1@0@Z
    ?g_Truncate@Struct_Microsoft_Singularity_V1_Services_SharedHeapService@@SIXPAUStruct_Microsoft_Singularity_V1_Services_SharedHeapService_Allocation@@PAUuintPtr@@@Z
    ?g_UnmapPhysicalRange@Struct_Microsoft_Singularity_V1_Services_DeviceService@@SIXPAUuintPtr@@0@Z
    ?g_Wait@Struct_Microsoft_Singularity_V1_Threads_InterruptHandle@@SI_NU1@@Z
    ?g_WaitAny@Struct_Microsoft_Singularity_V1_Threads_SyncHandle@@SIHPAU1@H@Z
    ?g_WaitAny@Struct_Microsoft_Singularity_V1_Threads_SyncHandle@@SIHPAU1@HUStruct_System_SchedulerTime@@@Z
    ?g_WaitAny@Struct_Microsoft_Singularity_V1_Threads_SyncHandle@@SIHPAU1@HUStruct_System_TimeSpan@@@Z
    ?g_WaitOne@Struct_Microsoft_Singularity_V1_Threads_SyncHandle@@SI_NU1@@Z
    ?g_WaitOne@Struct_Microsoft_Singularity_V1_Threads_SyncHandle@@SI_NU1@UStruct_System_SchedulerTime@@@Z
    ?g_WaitOne@Struct_Microsoft_Singularity_V1_Threads_SyncHandle@@SI_NU1@UStruct_System_TimeSpan@@@Z
    ?g_WaitOneNoGC@Struct_Microsoft_Singularity_V1_Threads_SyncHandle@@SI_NU1@@Z
    ?g_WalkEventDescriptor@Struct_Microsoft_Singularity_V1_Services_DiagnosisService@@SIPAUuintPtr@@PAU2@0PAG1PA_WG@Z
    ?g_WalkStack@Struct_Microsoft_Singularity_V1_Services_DebugService@@SIXXZ
    ?g_WalkStack@Struct_Microsoft_Singularity_V1_Services_StackService@@SIXXZ
    ?g_Waypoint0@Struct_Microsoft_Singularity_V1_Services_ProcessService@@SIXXZ
    ?g_Waypoint@Struct_Microsoft_Singularity_V1_Services_ProcessService@@SIXH@Z
    ?g_WaypointDone@Struct_Microsoft_Singularity_V1_Services_ProcessService@@SIXXZ
    ?g_WaypointDump@Struct_Microsoft_Singularity_V1_Services_ProcessService@@SIXXZ
    ?g_Write16@Struct_Microsoft_Singularity_V1_Services_PciPortHandle@@SI_NU1@HG@Z
    ?g_Write32@Struct_Microsoft_Singularity_V1_Services_PciPortHandle@@SI_NU1@HI@Z
    ?g_Write8@Struct_Microsoft_Singularity_V1_Services_PciPortHandle@@SI_NU1@HE@Z
    ?g_WritePerfCounter@Struct_Microsoft_Singularity_V1_Services_DebugService@@SI_NI_K@Z
    ?g_Yield@Struct_Microsoft_Singularity_V1_Threads_ThreadHandle@@SIXXZ
